target datalayout = "e-m:e-p270:32:32-p271:32:32-p272:64:64-i64:64-i128:128-f80:128-n8:16:32:64-S128"
target triple = "x86_64-pc-linux-gnu"

; Function Attrs: mustprogress nounwind uwtable
define hidden noundef i32 @_ZN8JvmtiEnv6GetTagEP8_jobjectPl(ptr noundef nonnull align 8 dereferenceable(460) %0, ptr noundef %1, ptr noundef %2) #1 align 2 {
  %4 = alloca i32, align 4
  %5 = alloca ptr, align 8
  %6 = alloca ptr, align 8
  %7 = alloca ptr, align 8
  %8 = alloca ptr, align 8
  store ptr %0, ptr %5, align 8
  store ptr %1, ptr %6, align 8
  store ptr %2, ptr %7, align 8
  %9 = load ptr, ptr %5, align 8
  %10 = load ptr, ptr %6, align 8
  %11 = call noundef ptr @_ZN10JNIHandles22resolve_external_guardEP8_jobject(ptr noundef %10)
  store ptr %11, ptr %8, align 8
  %12 = load ptr, ptr %8, align 8
  %13 = icmp eq ptr %12, null
  br i1 %13, label %14, label %15

14:                                               ; preds = %3
  store i32 20, ptr %4, align 4
  br label %20

15:                                               ; preds = %3
  %16 = call noundef ptr @_ZN11JvmtiTagMap11tag_map_forEP8JvmtiEnv(ptr noundef %9)
  %17 = load ptr, ptr %6, align 8
  %18 = call noundef i64 @_ZN11JvmtiTagMap7get_tagEP8_jobject(ptr noundef nonnull align 8 dereferenceable(122) %16, ptr noundef %17)
  %19 = load ptr, ptr %7, align 8
  store i64 %18, ptr %19, align 8
  store i32 0, ptr %4, align 4
  br label %20

20:                                               ; preds = %15, %14
  %21 = load i32, ptr %4, align 4
  ret i32 %21
}