; Function Attrs: mustprogress nounwind uwtable
define hidden noundef range(i32 0, 21) i32 @_ZN8JvmtiEnv6GetTagEP8_jobjectPl(ptr noundef nonnull align 8 dereferenceable(460) %0, ptr noundef %1, ptr nocapture noundef writeonly %2) local_unnamed_addr #0 align 2 {
  %4 = tail call noundef ptr @_ZN10JNIHandles22resolve_external_guardEP8_jobject(ptr noundef %1) #17
  %5 = icmp eq ptr %4, null
  br i1 %5, label %9, label %6

6:                                                ; preds = %3
  %7 = tail call noundef ptr @_ZN11JvmtiTagMap11tag_map_forEP8JvmtiEnv(ptr noundef nonnull %0) #17
  %8 = tail call noundef i64 @_ZN11JvmtiTagMap7get_tagEP8_jobject(ptr noundef nonnull align 8 dereferenceable(122) %7, ptr noundef %1) #17
  store i64 %8, ptr %2, align 8
  br label %9

9:                                                ; preds = %3, %6
  %.0 = phi i32 [ 0, %6 ], [ 20, %3 ]
  ret i32 %.0
}